; Function Attrs: mustprogress uwtable
define hidden void @_ZN4cvc58internal6theory2uf20CardinalityExtension9SortModel27CardinalityDecisionStrategy9mkLiteralEj(ptr dead_on_unwind noalias writable sret(%"class.cvc5::internal::NodeTemplate") align 8 %0, ptr noundef nonnull align 8 dereferenceable(152) %1, i32 noundef %2) unnamed_addr #4 align 2 personality ptr @__gxx_personality_v0 {
_ZN4cvc58internal7IntegerC2Ej.exit:
  %3 = alloca %"class.cvc5::internal::NodeBuilder", align 8
  %4 = alloca %"class.cvc5::internal::NodeTemplate.69", align 8
  %5 = alloca %"class.cvc5::internal::NodeTemplate", align 8
  %6 = alloca %"class.cvc5::internal::CardinalityConstraint", align 8
  %7 = alloca %"class.cvc5::internal::Integer", align 8
  %8 = tail call noundef ptr @_ZNK4cvc58internal6EnvObj11nodeManagerEv(ptr noundef nonnull align 8 dereferenceable(16) %1)
  call void @llvm.lifetime.start.p0(i64 8, ptr nonnull %5) #27
  call void @llvm.lifetime.start.p0(i64 24, ptr nonnull %6) #27
  %9 = getelementptr inbounds nuw i8, ptr %1, i64 144
  call void @llvm.lifetime.start.p0(i64 16, ptr nonnull %7) #27
  %10 = add i32 %2, 1
  %11 = zext i32 %10 to i64
  call void @__gmpz_init_set_ui(ptr noundef nonnull align 8 dereferenceable(16) %7, i64 noundef %11)
  invoke void @_ZN4cvc58internal21CardinalityConstraintC1ERKNS0_8TypeNodeERKNS0_7IntegerE(ptr noundef nonnull align 8 dereferenceable(24) %6, ptr noundef nonnull align 8 dereferenceable(8) %9, ptr noundef nonnull align 8 dereferenceable(16) %7)
          to label %12 unwind label %41

12:                                               ; preds = %_ZN4cvc58internal7IntegerC2Ej.exit
  invoke void @_ZN4cvc58internal11NodeManager7mkConstINS0_21CardinalityConstraintEEENS0_12NodeTemplateILb1EEERKT_(ptr dead_on_unwind nonnull writable sret(%"class.cvc5::internal::NodeTemplate") align 8 %5, ptr noundef nonnull align 8 dereferenceable(3560) %8, ptr noundef nonnull align 8 dereferenceable(24) %6)
          to label %13 unwind label %43

13:                                               ; preds = %12
  call void @_ZN4cvc58internal21CardinalityConstraintD1Ev(ptr noundef nonnull align 8 dereferenceable(24) %6) #27
  invoke void @__gmpz_clear(ptr noundef nonnull align 8 dereferenceable(16) %7)
          to label %_ZN4cvc58internal7IntegerD2Ev.exit unwind label %14

14:                                               ; preds = %13
  %15 = landingpad { ptr, i32 }
          catch ptr null
  %16 = extractvalue { ptr, i32 } %15, 0
  call void @__clang_call_terminate(ptr %16) #28
  unreachable

_ZN4cvc58internal7IntegerD2Ev.exit:               ; preds = %13
  call void @llvm.lifetime.end.p0(i64 16, ptr nonnull %7) #27
  call void @llvm.lifetime.end.p0(i64 24, ptr nonnull %6) #27
  %17 = load ptr, ptr %5, align 8, !tbaa !70
  call void @llvm.lifetime.start.p0(i64 8, ptr nonnull %4)
  call void @llvm.lifetime.start.p0(i64 128, ptr nonnull %3) #27, !noalias !271
  %18 = getelementptr inbounds nuw i8, ptr %17, i64 16
  %19 = load ptr, ptr %18, align 8, !tbaa !214, !noalias !271
  invoke void @_ZN4cvc58internal11NodeBuilderC1EPNS0_11NodeManagerENS0_4kind6Kind_tE(ptr noundef nonnull align 8 dereferenceable(124) %3, ptr noundef %19, i32 noundef 32)
          to label %.noexc unwind label %49

.noexc:                                           ; preds = %_ZN4cvc58internal7IntegerD2Ev.exit
  store ptr %17, ptr %4, align 8, !tbaa !179, !noalias !271
  %20 = invoke noundef nonnull align 8 dereferenceable(124) ptr @_ZN4cvc58internal11NodeBuilderlsENS0_12NodeTemplateILb0EEE(ptr noundef nonnull align 8 dereferenceable(124) %3, ptr noundef nonnull %4)
          to label %21 unwind label %24, !noalias !271

21:                                               ; preds = %.noexc
  invoke void @_ZN4cvc58internal11NodeBuilder13constructNodeEv(ptr dead_on_unwind writable sret(%"class.cvc5::internal::NodeTemplate") align 8 %0, ptr noundef nonnull align 8 dereferenceable(124) %3)
          to label %27 unwind label %22

22:                                               ; preds = %21
  %23 = landingpad { ptr, i32 }
          cleanup
  br label %26

24:                                               ; preds = %.noexc
  %25 = landingpad { ptr, i32 }
          cleanup
  br label %26

26:                                               ; preds = %24, %22
  %.pn.i = phi { ptr, i32 } [ %23, %22 ], [ %25, %24 ]
  call void @_ZN4cvc58internal11NodeBuilderD1Ev(ptr noundef nonnull align 8 dereferenceable(124) %3) #27
  call void @llvm.lifetime.end.p0(i64 128, ptr nonnull %3) #27, !noalias !271
  br label %.body

27:                                               ; preds = %21
  call void @_ZN4cvc58internal11NodeBuilderD1Ev(ptr noundef nonnull align 8 dereferenceable(124) %3) #27
  call void @llvm.lifetime.end.p0(i64 128, ptr nonnull %3) #27, !noalias !271
  call void @llvm.lifetime.end.p0(i64 8, ptr nonnull %4)
  %28 = load ptr, ptr %5, align 8, !tbaa !70
  %29 = load i64, ptr %28, align 8
  %30 = and i64 %29, 1152920405095219200
  %.not.i.i = icmp eq i64 %30, 1152920405095219200
  br i1 %.not.i.i, label %_ZN4cvc58internal12NodeTemplateILb1EED2Ev.exit, label %31, !prof !72

31:                                               ; preds = %27
  %32 = add i64 %29, 1152920405095219200
  %33 = and i64 %32, 1152920405095219200
  %34 = and i64 %29, -1152920405095219201
  %35 = or disjoint i64 %33, %34
  store i64 %35, ptr %28, align 8
  %36 = icmp eq i64 %33, 0
  br i1 %36, label %37, label %_ZN4cvc58internal12NodeTemplateILb1EED2Ev.exit, !prof !72

37:                                               ; preds = %31
  invoke void @_ZN4cvc58internal4expr9NodeValue15markForDeletionEv(ptr noundef nonnull align 8 dereferenceable(24) %28)
          to label %_ZN4cvc58internal12NodeTemplateILb1EED2Ev.exit unwind label %38

38:                                               ; preds = %37
  %39 = landingpad { ptr, i32 }
          catch ptr null
  %40 = extractvalue { ptr, i32 } %39, 0
  call void @__clang_call_terminate(ptr %40) #28
  unreachable

_ZN4cvc58internal12NodeTemplateILb1EED2Ev.exit:   ; preds = %27, %31, %37
  call void @llvm.lifetime.end.p0(i64 8, ptr nonnull %5) #27
  ret void

41:                                               ; preds = %_ZN4cvc58internal7IntegerC2Ej.exit
  %42 = landingpad { ptr, i32 }
          cleanup
  br label %45

43:                                               ; preds = %12
  %44 = landingpad { ptr, i32 }
          cleanup
  call void @_ZN4cvc58internal21CardinalityConstraintD1Ev(ptr noundef nonnull align 8 dereferenceable(24) %6) #27
  br label %45

45:                                               ; preds = %43, %41
  %.pn = phi { ptr, i32 } [ %44, %43 ], [ %42, %41 ]
  invoke void @__gmpz_clear(ptr noundef nonnull align 8 dereferenceable(16) %7)
          to label %_ZN4cvc58internal7IntegerD2Ev.exit9 unwind label %46

46:                                               ; preds = %45
  %47 = landingpad { ptr, i32 }
          catch ptr null
  %48 = extractvalue { ptr, i32 } %47, 0
  call void @__clang_call_terminate(ptr %48) #28
  unreachable

_ZN4cvc58internal7IntegerD2Ev.exit9:              ; preds = %45
  call void @llvm.lifetime.end.p0(i64 16, ptr nonnull %7) #27
  call void @llvm.lifetime.end.p0(i64 24, ptr nonnull %6) #27
  br label %51

49:                                               ; preds = %_ZN4cvc58internal7IntegerD2Ev.exit
  %50 = landingpad { ptr, i32 }
          cleanup
  br label %.body

.body:                                            ; preds = %26, %49
  %eh.lpad-body = phi { ptr, i32 } [ %50, %49 ], [ %.pn.i, %26 ]
  call void @_ZN4cvc58internal12NodeTemplateILb1EED2Ev(ptr noundef nonnull align 8 dereferenceable(8) %5) #27
  br label %51

51:                                               ; preds = %.body, %_ZN4cvc58internal7IntegerD2Ev.exit9
  %.pn7 = phi { ptr, i32 } [ %eh.lpad-body, %.body ], [ %.pn, %_ZN4cvc58internal7IntegerD2Ev.exit9 ]
  call void @llvm.lifetime.end.p0(i64 8, ptr nonnull %5) #27
  resume { ptr, i32 } %.pn7
}